; Function Attrs: mustprogress nofree norecurse nosync nounwind willreturn memory(argmem: read) uwtable
define internal i64 @Round_To_Grid(ptr nocapture noundef readonly %0, i64 noundef %1, i32 noundef %2) #4 {
  %4 = getelementptr inbounds i8, ptr %0, i64 496
  %5 = sext i32 %2 to i64
  %6 = getelementptr inbounds [4 x i64], ptr %4, i64 0, i64 %5
  %7 = load i64, ptr %6, align 8
  %8 = icmp sgt i64 %1, -1
  br i1 %8, label %9, label %13

9:                                                ; preds = %3
  %10 = add nuw i64 %1, 32
  %11 = add i64 %10, %7
  %12 = and i64 %11, -64
  %spec.store.select = tail call i64 @llvm.smax.i64(i64 %12, i64 0)
  br label %17

13:                                               ; preds = %3
  %reass.sub = sub i64 %7, %1
  %14 = add i64 %reass.sub, 32
  %15 = and i64 %14, -64
  %16 = sub i64 0, %15
  %spec.store.select1 = tail call i64 @llvm.smin.i64(i64 %16, i64 0)
  br label %17

17:                                               ; preds = %13, %9
  %.0 = phi i64 [ %spec.store.select, %9 ], [ %spec.store.select1, %13 ]
  ret i64 %.0
}